target datalayout = "e-m:e-p270:32:32-p271:32:32-p272:64:64-i64:64-i128:128-f80:128-n8:16:32:64-S128"
target triple = "x86_64-pc-linux-gnu"

%"class.std::basic_istream" = type { ptr, i64, %"class.std::basic_ios" }
%"class.std::basic_ios" = type { %"class.std::ios_base", ptr, i8, i8, ptr, ptr, ptr, ptr }
%"class.std::ios_base" = type { ptr, i64, i64, i32, i32, i32, ptr, %"struct.std::ios_base::_Words", [8 x %"struct.std::ios_base::_Words"], i32, ptr, %"class.std::locale" }
%"struct.std::ios_base::_Words" = type { ptr, i64 }
%"class.std::locale" = type { ptr }
%class.scanner = type <{ i32, i32, %class.symbol, %class.rational, i32, i32, [256 x i8], %class.vector, ptr, ptr, %class.vector.0, %class.buffer, i32, i32, i8, i8, i8, i8, [4 x i8] }>
%class.symbol = type { ptr }
%class.rational = type { %class.mpq }
%class.mpq = type { %class.mpz, %class.mpz }
%class.mpz = type { i32, i8, ptr }
%class.vector = type { ptr }
%class.vector.0 = type { ptr }
%class.buffer = type { ptr, i32, i32, [16 x i8] }

@.str.1 = private unnamed_addr constant [31 x i8] c"ERROR: unexpected character: '\00", align 1
@.str.2 = private unnamed_addr constant [2 x i8] c" \00", align 1
@.str.3 = private unnamed_addr constant [4 x i8] c"'.\0A\00", align 1

; Function Attrs: inlinehint mustprogress nounwind uwtable
define linkonce_odr noundef i32 @_ZStorSt12_Ios_IostateS_(i32 noundef %0, i32 noundef %1) #5 comdat {
  %3 = alloca i32, align 4
  %4 = alloca i32, align 4
  store i32 %0, ptr %3, align 4, !tbaa !133
  store i32 %1, ptr %4, align 4, !tbaa !133
  %5 = load i32, ptr %3, align 4, !tbaa !133
  %6 = load i32, ptr %4, align 4, !tbaa !133
  %7 = or i32 %5, %6
  ret i32 %7
}

; Function Attrs: mustprogress nounwind uwtable
define available_externally noundef i32 @_ZNKSt9basic_iosIcSt11char_traitsIcEE7rdstateEv(ptr noundef nonnull align 8 dereferenceable(264) %0) #8 align 2 {
  %2 = alloca ptr, align 8
  store ptr %0, ptr %2, align 8, !tbaa !131
  %3 = load ptr, ptr %2, align 8
  %4 = getelementptr inbounds nuw %"class.std::ios_base", ptr %3, i32 0, i32 5
  %5 = load i32, ptr %4, align 8, !tbaa !135
  ret i32 %5
}

; Function Attrs: mustprogress nounwind uwtable
define linkonce_odr hidden noundef i64 @_ZNSt11char_traitsIcE6lengthEPKc(ptr noundef %0) #8 comdat align 2 {
  %2 = alloca ptr, align 8
  store ptr %0, ptr %2, align 8, !tbaa !46
  %3 = load ptr, ptr %2, align 8, !tbaa !46
  %4 = call i64 @strlen(ptr noundef %3) #3
  ret i64 %4
}

; Function Attrs: mustprogress uwtable
define available_externally void @_ZNSt9basic_iosIcSt11char_traitsIcEE8setstateESt12_Ios_Iostate(ptr noundef nonnull align 8 dereferenceable(264) %0, i32 noundef %1) #4 align 2 {
  %3 = alloca ptr, align 8
  %4 = alloca i32, align 4
  store ptr %0, ptr %3, align 8, !tbaa !131
  store i32 %1, ptr %4, align 4, !tbaa !133
  %5 = load ptr, ptr %3, align 8
  %6 = call noundef i32 @_ZNKSt9basic_iosIcSt11char_traitsIcEE7rdstateEv(ptr noundef nonnull align 8 dereferenceable(264) %5)
  %7 = load i32, ptr %4, align 4, !tbaa !133
  %8 = call noundef i32 @_ZStorSt12_Ios_IostateS_(i32 noundef %6, i32 noundef %7)
  call void @_ZNSt9basic_iosIcSt11char_traitsIcEE5clearESt12_Ios_Iostate(ptr noundef nonnull align 8 dereferenceable(264) %5, i32 noundef %8)
  ret void
}

; Function Attrs: mustprogress nounwind uwtable
define available_externally noundef i64 @_ZNKSi6gcountEv(ptr noundef nonnull align 8 dereferenceable(16) %0) #8 align 2 {
  %2 = alloca ptr, align 8
  store ptr %0, ptr %2, align 8, !tbaa !70
  %3 = load ptr, ptr %2, align 8
  %4 = getelementptr inbounds nuw %"class.std::basic_istream", ptr %3, i32 0, i32 1
  %5 = load i64, ptr %4, align 8, !tbaa !83
  ret i64 %5
}

; Function Attrs: mustprogress nounwind uwtable
define linkonce_odr hidden noundef i32 @_ZNK6bufferIcLb1ELj16EE4sizeEv(ptr noundef nonnull align 8 dereferenceable(32) %0) #8 comdat align 2 {
  %2 = alloca ptr, align 8
  store ptr %0, ptr %2, align 8, !tbaa !75
  %3 = load ptr, ptr %2, align 8
  %4 = getelementptr inbounds nuw %class.buffer, ptr %3, i32 0, i32 1
  %5 = load i32, ptr %4, align 8, !tbaa !78
  ret i32 %5
}

; Function Attrs: mustprogress nounwind uwtable
define linkonce_odr hidden noundef ptr @_ZNK6bufferIcLb1ELj16EE4dataEv(ptr noundef nonnull align 8 dereferenceable(32) %0) #8 comdat align 2 {
  %2 = alloca ptr, align 8
  store ptr %0, ptr %2, align 8, !tbaa !75
  %3 = load ptr, ptr %2, align 8
  %4 = getelementptr inbounds nuw %class.buffer, ptr %3, i32 0, i32 0
  %5 = load ptr, ptr %4, align 8, !tbaa !77
  ret ptr %5
}

; Function Attrs: mustprogress nounwind uwtable
define linkonce_odr hidden noundef nonnull align 1 dereferenceable(1) ptr @_ZN6bufferIcLb1ELj16EEixEj(ptr noundef nonnull align 8 dereferenceable(32) %0, i32 noundef %1) #8 comdat align 2 {
  %3 = alloca ptr, align 8
  %4 = alloca i32, align 4
  store ptr %0, ptr %3, align 8, !tbaa !75
  store i32 %1, ptr %4, align 4, !tbaa !9
  %5 = load ptr, ptr %3, align 8
  %6 = getelementptr inbounds nuw %class.buffer, ptr %5, i32 0, i32 0
  %7 = load ptr, ptr %6, align 8, !tbaa !77
  %8 = load i32, ptr %4, align 4, !tbaa !9
  %9 = zext i32 %8 to i64
  %10 = getelementptr inbounds nuw i8, ptr %7, i64 %9
  ret ptr %10
}

; Function Attrs: inlinehint mustprogress uwtable
define available_externally noundef nonnull align 8 dereferenceable(8) ptr @_ZStlsISt11char_traitsIcEERSt13basic_ostreamIcT_ES5_PKc(ptr noundef nonnull align 8 dereferenceable(8) %0, ptr noundef %1) #7 {
  %3 = alloca ptr, align 8
  %4 = alloca ptr, align 8
  store ptr %0, ptr %3, align 8, !tbaa !45
  store ptr %1, ptr %4, align 8, !tbaa !46
  %5 = load ptr, ptr %4, align 8, !tbaa !46
  %6 = icmp ne ptr %5, null
  br i1 %6, label %13, label %7

7:                                                ; preds = %2
  %8 = load ptr, ptr %3, align 8, !tbaa !45
  %9 = load ptr, ptr %8, align 8, !tbaa !47
  %10 = getelementptr i8, ptr %9, i64 -24
  %11 = load i64, ptr %10, align 8
  %12 = getelementptr inbounds i8, ptr %8, i64 %11
  call void @_ZNSt9basic_iosIcSt11char_traitsIcEE8setstateESt12_Ios_Iostate(ptr noundef nonnull align 8 dereferenceable(264) %12, i32 noundef 1)
  br label %19

13:                                               ; preds = %2
  %14 = load ptr, ptr %3, align 8, !tbaa !45
  %15 = load ptr, ptr %4, align 8, !tbaa !46
  %16 = load ptr, ptr %4, align 8, !tbaa !46
  %17 = call noundef i64 @_ZNSt11char_traitsIcE6lengthEPKc(ptr noundef %16)
  %18 = call noundef nonnull align 8 dereferenceable(8) ptr @_ZSt16__ostream_insertIcSt11char_traitsIcEERSt13basic_ostreamIT_T0_ES6_PKS3_l(ptr noundef nonnull align 8 dereferenceable(8) %14, ptr noundef %15, i64 noundef %17)
  br label %19

19:                                               ; preds = %13, %7
  %20 = load ptr, ptr %3, align 8, !tbaa !45
  ret ptr %20
}

; Function Attrs: inlinehint mustprogress uwtable
define linkonce_odr hidden noundef i32 @_ZN7scanner9read_charEv(ptr noundef nonnull align 8 dereferenceable(388) %0) #7 comdat align 2 {
  %2 = alloca i32, align 4
  %3 = alloca ptr, align 8
  store ptr %0, ptr %3, align 8, !tbaa !3
  %4 = load ptr, ptr %3, align 8
  %5 = getelementptr inbounds nuw %class.scanner, ptr %4, i32 0, i32 15
  %6 = load i8, ptr %5, align 1, !tbaa !30, !range !31, !noundef !32
  %7 = trunc i8 %6 to i1
  br i1 %7, label %8, label %15

8:                                                ; preds = %1
  %9 = getelementptr inbounds nuw %class.scanner, ptr %4, i32 0, i32 1
  %10 = load i32, ptr %9, align 4, !tbaa !33
  %11 = add nsw i32 %10, 1
  store i32 %11, ptr %9, align 4, !tbaa !33
  %12 = getelementptr inbounds nuw %class.scanner, ptr %4, i32 0, i32 8
  %13 = load ptr, ptr %12, align 8, !tbaa !34
  %14 = call noundef i32 @_ZNSi3getEv(ptr noundef nonnull align 8 dereferenceable(16) %13)
  store i32 %14, ptr %2, align 4
  br label %71

15:                                               ; preds = %1
  %16 = getelementptr inbounds nuw %class.scanner, ptr %4, i32 0, i32 12
  %17 = load i32, ptr %16, align 8, !tbaa !35
  %18 = getelementptr inbounds nuw %class.scanner, ptr %4, i32 0, i32 13
  %19 = load i32, ptr %18, align 4, !tbaa !36
  %20 = icmp uge i32 %17, %19
  br i1 %20, label %21, label %50

21:                                               ; preds = %15
  %22 = getelementptr inbounds nuw %class.scanner, ptr %4, i32 0, i32 14
  %23 = load i8, ptr %22, align 8, !tbaa !37
  %24 = getelementptr inbounds nuw %class.scanner, ptr %4, i32 0, i32 11
  %25 = call noundef nonnull align 1 dereferenceable(1) ptr @_ZN6bufferIcLb1ELj16EEixEj(ptr noundef nonnull align 8 dereferenceable(32) %24, i32 noundef 0)
  store i8 %23, ptr %25, align 1, !tbaa !8
  %26 = getelementptr inbounds nuw %class.scanner, ptr %4, i32 0, i32 8
  %27 = load ptr, ptr %26, align 8, !tbaa !34
  %28 = getelementptr inbounds nuw %class.scanner, ptr %4, i32 0, i32 11
  %29 = call noundef ptr @_ZNK6bufferIcLb1ELj16EE4dataEv(ptr noundef nonnull align 8 dereferenceable(32) %28)
  %30 = getelementptr inbounds i8, ptr %29, i64 1
  %31 = getelementptr inbounds nuw %class.scanner, ptr %4, i32 0, i32 11
  %32 = call noundef i32 @_ZNK6bufferIcLb1ELj16EE4sizeEv(ptr noundef nonnull align 8 dereferenceable(32) %31)
  %33 = sub i32 %32, 1
  %34 = zext i32 %33 to i64
  %35 = call noundef nonnull align 8 dereferenceable(16) ptr @_ZNSi4readEPcl(ptr noundef nonnull align 8 dereferenceable(16) %27, ptr noundef %30, i64 noundef %34)
  %36 = getelementptr inbounds nuw %class.scanner, ptr %4, i32 0, i32 8
  %37 = load ptr, ptr %36, align 8, !tbaa !34
  %38 = call noundef i64 @_ZNKSi6gcountEv(ptr noundef nonnull align 8 dereferenceable(16) %37)
  %39 = trunc i64 %38 to i32
  %40 = add i32 1, %39
  %41 = getelementptr inbounds nuw %class.scanner, ptr %4, i32 0, i32 13
  store i32 %40, ptr %41, align 4, !tbaa !36
  %42 = getelementptr inbounds nuw %class.scanner, ptr %4, i32 0, i32 12
  store i32 1, ptr %42, align 8, !tbaa !35
  %43 = getelementptr inbounds nuw %class.scanner, ptr %4, i32 0, i32 11
  %44 = getelementptr inbounds nuw %class.scanner, ptr %4, i32 0, i32 13
  %45 = load i32, ptr %44, align 4, !tbaa !36
  %46 = sub i32 %45, 1
  %47 = call noundef nonnull align 1 dereferenceable(1) ptr @_ZN6bufferIcLb1ELj16EEixEj(ptr noundef nonnull align 8 dereferenceable(32) %43, i32 noundef %46)
  %48 = load i8, ptr %47, align 1, !tbaa !8
  %49 = getelementptr inbounds nuw %class.scanner, ptr %4, i32 0, i32 14
  store i8 %48, ptr %49, align 8, !tbaa !37
  br label %50

50:                                               ; preds = %21, %15
  %51 = getelementptr inbounds nuw %class.scanner, ptr %4, i32 0, i32 1
  %52 = load i32, ptr %51, align 4, !tbaa !33
  %53 = add nsw i32 %52, 1
  store i32 %53, ptr %51, align 4, !tbaa !33
  %54 = getelementptr inbounds nuw %class.scanner, ptr %4, i32 0, i32 12
  %55 = load i32, ptr %54, align 8, !tbaa !35
  %56 = getelementptr inbounds nuw %class.scanner, ptr %4, i32 0, i32 13
  %57 = load i32, ptr %56, align 4, !tbaa !36
  %58 = icmp ult i32 %55, %57
  br i1 %58, label %59, label %67

59:                                               ; preds = %50
  %60 = getelementptr inbounds nuw %class.scanner, ptr %4, i32 0, i32 11
  %61 = getelementptr inbounds nuw %class.scanner, ptr %4, i32 0, i32 12
  %62 = load i32, ptr %61, align 8, !tbaa !35
  %63 = add i32 %62, 1
  store i32 %63, ptr %61, align 8, !tbaa !35
  %64 = call noundef nonnull align 1 dereferenceable(1) ptr @_ZN6bufferIcLb1ELj16EEixEj(ptr noundef nonnull align 8 dereferenceable(32) %60, i32 noundef %62)
  %65 = load i8, ptr %64, align 1, !tbaa !8
  %66 = sext i8 %65 to i32
  store i32 %66, ptr %2, align 4
  br label %71

67:                                               ; preds = %50
  %68 = getelementptr inbounds nuw %class.scanner, ptr %4, i32 0, i32 12
  %69 = load i32, ptr %68, align 8, !tbaa !35
  %70 = add i32 %69, 1
  store i32 %70, ptr %68, align 8, !tbaa !35
  store i32 -1, ptr %2, align 4
  br label %71

71:                                               ; preds = %67, %59, %8
  %72 = load i32, ptr %2, align 4
  ret i32 %72
}

; Function Attrs: inlinehint mustprogress nounwind uwtable
define linkonce_odr hidden noundef zeroext i1 @_ZN7scanner8state_okEv(ptr noundef nonnull align 8 dereferenceable(388) %0) #5 comdat align 2 {
  %2 = alloca ptr, align 8
  store ptr %0, ptr %2, align 8, !tbaa !3
  %3 = load ptr, ptr %2, align 8
  %4 = getelementptr inbounds nuw %class.scanner, ptr %3, i32 0, i32 5
  %5 = load i32, ptr %4, align 4, !tbaa !29
  %6 = icmp ne i32 %5, 11
  br i1 %6, label %7, label %11

7:                                                ; preds = %1
  %8 = getelementptr inbounds nuw %class.scanner, ptr %3, i32 0, i32 5
  %9 = load i32, ptr %8, align 4, !tbaa !29
  %10 = icmp ne i32 %9, 10
  br label %11

11:                                               ; preds = %7, %1
  %12 = phi i1 [ false, %1 ], [ %10, %7 ]
  ret i1 %12
}

; Function Attrs: mustprogress uwtable
define hidden noundef i32 @_ZN7scanner4scanEv(ptr noundef nonnull align 8 dereferenceable(388) %0) #4 align 2 {
  %2 = alloca i32, align 4
  %3 = alloca ptr, align 8
  %4 = alloca i32, align 4
  %5 = alloca i32, align 4
  store ptr %0, ptr %3, align 8, !tbaa !3
  %6 = load ptr, ptr %3, align 8
  br label %7

7:                                                ; preds = %57, %1
  %8 = call noundef zeroext i1 @_ZN7scanner8state_okEv(ptr noundef nonnull align 8 dereferenceable(388) %6)
  br i1 %8, label %9, label %58

9:                                                ; preds = %7
  call void @llvm.lifetime.start.p0(i64 4, ptr %4) #3
  %10 = call noundef i32 @_ZN7scanner9read_charEv(ptr noundef nonnull align 8 dereferenceable(388) %6)
  store i32 %10, ptr %4, align 4, !tbaa !9
  %11 = getelementptr inbounds nuw %class.scanner, ptr %6, i32 0, i32 6
  %12 = load i32, ptr %4, align 4, !tbaa !9
  %13 = trunc i32 %12 to i8
  %14 = zext i8 %13 to i64
  %15 = getelementptr inbounds nuw [256 x i8], ptr %11, i64 0, i64 %14
  %16 = load i8, ptr %15, align 1, !tbaa !8
  %17 = sext i8 %16 to i32
  switch i32 %17, label %43 [
    i32 32, label %54
    i32 10, label %18
    i32 59, label %23
    i32 58, label %24
    i32 40, label %25
    i32 41, label %26
    i32 63, label %27
    i32 36, label %27
    i32 97, label %27
    i32 43, label %27
    i32 46, label %27
    i32 123, label %31
    i32 34, label %33
    i32 48, label %35
    i32 35, label %39
    i32 -1, label %41
  ]

18:                                               ; preds = %9
  %19 = getelementptr inbounds nuw %class.scanner, ptr %6, i32 0, i32 1
  store i32 0, ptr %19, align 4, !tbaa !33
  %20 = getelementptr inbounds nuw %class.scanner, ptr %6, i32 0, i32 0
  %21 = load i32, ptr %20, align 8, !tbaa !11
  %22 = add nsw i32 %21, 1
  store i32 %22, ptr %20, align 8, !tbaa !11
  br label %54

23:                                               ; preds = %9
  call void @_ZN7scanner7commentEc(ptr noundef nonnull align 8 dereferenceable(388) %6, i8 noundef signext 10)
  br label %54

24:                                               ; preds = %9
  store i32 3, ptr %2, align 4
  store i32 1, ptr %5, align 4
  br label %55

25:                                               ; preds = %9
  store i32 1, ptr %2, align 4
  store i32 1, ptr %5, align 4
  br label %55

26:                                               ; preds = %9
  store i32 2, ptr %2, align 4
  store i32 1, ptr %5, align 4
  br label %55

27:                                               ; preds = %9, %9, %9, %9, %9
  %28 = load i32, ptr %4, align 4, !tbaa !9
  %29 = trunc i32 %28 to i8
  %30 = call noundef i32 @_ZN7scanner7read_idEc(ptr noundef nonnull align 8 dereferenceable(388) %6, i8 noundef signext %29)
  store i32 %30, ptr %2, align 4
  store i32 1, ptr %5, align 4
  br label %55

31:                                               ; preds = %9
  %32 = call noundef i32 @_ZN7scanner11read_stringEcNS_5tokenE(ptr noundef nonnull align 8 dereferenceable(388) %6, i8 noundef signext 125, i32 noundef 6)
  store i32 %32, ptr %2, align 4
  store i32 1, ptr %5, align 4
  br label %55

33:                                               ; preds = %9
  %34 = call noundef i32 @_ZN7scanner11read_stringEcNS_5tokenE(ptr noundef nonnull align 8 dereferenceable(388) %6, i8 noundef signext 34, i32 noundef 5)
  store i32 %34, ptr %2, align 4
  store i32 1, ptr %5, align 4
  br label %55

35:                                               ; preds = %9
  %36 = load i32, ptr %4, align 4, !tbaa !9
  %37 = trunc i32 %36 to i8
  %38 = call noundef i32 @_ZN7scanner11read_numberEcb(ptr noundef nonnull align 8 dereferenceable(388) %6, i8 noundef signext %37, i1 noundef zeroext true)
  store i32 %38, ptr %2, align 4
  store i32 1, ptr %5, align 4
  br label %55

39:                                               ; preds = %9
  %40 = call noundef i32 @_ZN7scanner15read_bv_literalEv(ptr noundef nonnull align 8 dereferenceable(388) %6)
  store i32 %40, ptr %2, align 4
  store i32 1, ptr %5, align 4
  br label %55

41:                                               ; preds = %9
  %42 = getelementptr inbounds nuw %class.scanner, ptr %6, i32 0, i32 5
  store i32 10, ptr %42, align 4, !tbaa !29
  br label %54

43:                                               ; preds = %9
  %44 = getelementptr inbounds nuw %class.scanner, ptr %6, i32 0, i32 9
  %45 = load ptr, ptr %44, align 8, !tbaa !40
  %46 = call noundef nonnull align 8 dereferenceable(8) ptr @_ZStlsISt11char_traitsIcEERSt13basic_ostreamIcT_ES5_PKc(ptr noundef nonnull align 8 dereferenceable(8) %45, ptr noundef @.str.1)
  %47 = load i32, ptr %4, align 4, !tbaa !9
  %48 = call noundef nonnull align 8 dereferenceable(8) ptr @_ZNSolsEi(ptr noundef nonnull align 8 dereferenceable(8) %46, i32 noundef %47)
  %49 = call noundef nonnull align 8 dereferenceable(8) ptr @_ZStlsISt11char_traitsIcEERSt13basic_ostreamIcT_ES5_PKc(ptr noundef nonnull align 8 dereferenceable(8) %48, ptr noundef @.str.2)
  %50 = load i32, ptr %4, align 4, !tbaa !9
  %51 = call noundef nonnull align 8 dereferenceable(8) ptr @_ZNSolsEi(ptr noundef nonnull align 8 dereferenceable(8) %49, i32 noundef %50)
  %52 = call noundef nonnull align 8 dereferenceable(8) ptr @_ZStlsISt11char_traitsIcEERSt13basic_ostreamIcT_ES5_PKc(ptr noundef nonnull align 8 dereferenceable(8) %51, ptr noundef @.str.3)
  %53 = getelementptr inbounds nuw %class.scanner, ptr %6, i32 0, i32 5
  store i32 11, ptr %53, align 4, !tbaa !29
  br label %54

54:                                               ; preds = %43, %41, %9, %23, %18
  store i32 0, ptr %5, align 4
  br label %55

55:                                               ; preds = %54, %39, %35, %33, %31, %27, %26, %25, %24
  call void @llvm.lifetime.end.p0(i64 4, ptr %4) #3
  %56 = load i32, ptr %5, align 4
  switch i32 %56, label %63 [
    i32 0, label %57
    i32 1, label %61
  ]

57:                                               ; preds = %55
  br label %7, !llvm.loop !82

58:                                               ; preds = %7
  %59 = getelementptr inbounds nuw %class.scanner, ptr %6, i32 0, i32 5
  %60 = load i32, ptr %59, align 4, !tbaa !29
  store i32 %60, ptr %2, align 4
  br label %61

61:                                               ; preds = %58, %55
  %62 = load i32, ptr %2, align 4
  ret i32 %62

63:                                               ; preds = %55
  unreachable
}