; Function Attrs: mustprogress uwtable
define hidden noundef i32 @_ZN7scanner4scanEv(ptr noundef nonnull align 8 dereferenceable(388) %0) local_unnamed_addr #3 align 2 {
  %2 = getelementptr inbounds nuw i8, ptr %0, i64 52
  %3 = load i32, ptr %2, align 4, !tbaa !3
  %4 = add i32 %3, -12
  %spec.select.i18 = icmp ult i32 %4, -2
  br i1 %spec.select.i18, label %.lr.ph, label %.thread

.lr.ph:                                           ; preds = %1
  %5 = getelementptr inbounds nuw i8, ptr %0, i64 385
  %6 = getelementptr inbounds nuw i8, ptr %0, i64 376
  %7 = getelementptr inbounds nuw i8, ptr %0, i64 380
  %8 = getelementptr inbounds nuw i8, ptr %0, i64 384
  %9 = getelementptr inbounds nuw i8, ptr %0, i64 344
  %10 = getelementptr inbounds nuw i8, ptr %0, i64 320
  %11 = getelementptr inbounds nuw i8, ptr %0, i64 352
  %12 = getelementptr inbounds nuw i8, ptr %0, i64 4
  %13 = getelementptr inbounds nuw i8, ptr %0, i64 56
  %14 = getelementptr inbounds nuw i8, ptr %0, i64 328
  br label %15

15:                                               ; preds = %.lr.ph, %85
  %16 = load i8, ptr %5, align 1, !tbaa !23, !range !24, !noundef !25
  %17 = trunc nuw i8 %16 to i1
  br i1 %17, label %18, label %23

18:                                               ; preds = %15
  %19 = load i32, ptr %12, align 4, !tbaa !26
  %20 = add nsw i32 %19, 1
  store i32 %20, ptr %12, align 4, !tbaa !26
  %21 = load ptr, ptr %10, align 8, !tbaa !27
  %22 = tail call noundef i32 @_ZNSi3getEv(ptr noundef nonnull align 8 dereferenceable(16) %21)
  br label %_ZN7scanner9read_charEv.exit

23:                                               ; preds = %15
  %24 = load i32, ptr %6, align 8, !tbaa !28
  %25 = load i32, ptr %7, align 4, !tbaa !29
  %.not.i = icmp ult i32 %24, %25
  br i1 %.not.i, label %45, label %26

26:                                               ; preds = %23
  %27 = load i8, ptr %8, align 8, !tbaa !30
  %28 = load ptr, ptr %9, align 8, !tbaa !31
  store i8 %27, ptr %28, align 1, !tbaa !32
  %29 = load ptr, ptr %10, align 8, !tbaa !27
  %30 = load ptr, ptr %9, align 8, !tbaa !31
  %31 = getelementptr inbounds nuw i8, ptr %30, i64 1
  %32 = load i32, ptr %11, align 8, !tbaa !33
  %33 = add i32 %32, -1
  %34 = zext i32 %33 to i64
  %35 = tail call noundef nonnull align 8 dereferenceable(16) ptr @_ZNSi4readEPcl(ptr noundef nonnull align 8 dereferenceable(16) %29, ptr noundef nonnull %31, i64 noundef %34)
  %36 = load ptr, ptr %10, align 8, !tbaa !27
  %37 = getelementptr inbounds nuw i8, ptr %36, i64 8
  %38 = load i64, ptr %37, align 8, !tbaa !34
  %39 = trunc i64 %38 to i32
  %40 = add i32 %39, 1
  store i32 %40, ptr %7, align 4, !tbaa !29
  store i32 1, ptr %6, align 8, !tbaa !28
  %41 = load ptr, ptr %9, align 8, !tbaa !31
  %42 = and i64 %38, 4294967295
  %43 = getelementptr inbounds nuw i8, ptr %41, i64 %42
  %44 = load i8, ptr %43, align 1, !tbaa !32
  store i8 %44, ptr %8, align 8, !tbaa !30
  br label %45

45:                                               ; preds = %26, %23
  %46 = phi i32 [ %40, %26 ], [ %25, %23 ]
  %47 = phi i32 [ 1, %26 ], [ %24, %23 ]
  %48 = load i32, ptr %12, align 4, !tbaa !26
  %49 = add nsw i32 %48, 1
  store i32 %49, ptr %12, align 4, !tbaa !26
  %50 = icmp ult i32 %47, %46
  %51 = add nuw i32 %47, 1
  store i32 %51, ptr %6, align 8, !tbaa !28
  br i1 %50, label %52, label %_ZN7scanner9read_charEv.exit

52:                                               ; preds = %45
  %53 = load ptr, ptr %9, align 8, !tbaa !31
  %54 = zext i32 %47 to i64
  %55 = getelementptr inbounds nuw i8, ptr %53, i64 %54
  %56 = load i8, ptr %55, align 1, !tbaa !32
  %57 = sext i8 %56 to i32
  br label %_ZN7scanner9read_charEv.exit

_ZN7scanner9read_charEv.exit:                     ; preds = %45, %18, %52
  %.0.i = phi i32 [ %22, %18 ], [ %57, %52 ], [ -1, %45 ]
  %.mask = and i32 %.0.i, 255
  %58 = zext nneg i32 %.mask to i64
  %59 = getelementptr inbounds nuw [256 x i8], ptr %13, i64 0, i64 %58
  %60 = load i8, ptr %59, align 1, !tbaa !32
  switch i8 %60, label %78 [
    i8 32, label %85
    i8 10, label %61
    i8 59, label %64
    i8 58, label %.thread.loopexit
    i8 40, label %.thread.loopexit43
    i8 41, label %.thread
    i8 63, label %65
    i8 36, label %65
    i8 97, label %65
    i8 43, label %65
    i8 46, label %65
    i8 123, label %68
    i8 34, label %70
    i8 48, label %72
    i8 35, label %75
    i8 -1, label %77
  ]

61:                                               ; preds = %_ZN7scanner9read_charEv.exit
  store i32 0, ptr %12, align 4, !tbaa !26
  %62 = load i32, ptr %0, align 8, !tbaa !37
  %63 = add nsw i32 %62, 1
  store i32 %63, ptr %0, align 8, !tbaa !37
  br label %85

64:                                               ; preds = %_ZN7scanner9read_charEv.exit
  tail call void @_ZN7scanner7commentEc(ptr noundef nonnull align 8 dereferenceable(388) %0, i8 noundef signext 10)
  br label %85

65:                                               ; preds = %_ZN7scanner9read_charEv.exit, %_ZN7scanner9read_charEv.exit, %_ZN7scanner9read_charEv.exit, %_ZN7scanner9read_charEv.exit, %_ZN7scanner9read_charEv.exit
  %66 = trunc i32 %.0.i to i8
  %67 = tail call noundef i32 @_ZN7scanner7read_idEc(ptr noundef nonnull align 8 dereferenceable(388) %0, i8 noundef signext %66)
  br label %.thread

68:                                               ; preds = %_ZN7scanner9read_charEv.exit
  %69 = tail call noundef i32 @_ZN7scanner11read_stringEcNS_5tokenE(ptr noundef nonnull align 8 dereferenceable(388) %0, i8 noundef signext 125, i32 noundef 6)
  br label %.thread

70:                                               ; preds = %_ZN7scanner9read_charEv.exit
  %71 = tail call noundef i32 @_ZN7scanner11read_stringEcNS_5tokenE(ptr noundef nonnull align 8 dereferenceable(388) %0, i8 noundef signext 34, i32 noundef 5)
  br label %.thread

72:                                               ; preds = %_ZN7scanner9read_charEv.exit
  %73 = trunc i32 %.0.i to i8
  %74 = tail call noundef i32 @_ZN7scanner11read_numberEcb(ptr noundef nonnull align 8 dereferenceable(388) %0, i8 noundef signext %73, i1 noundef zeroext true)
  br label %.thread

75:                                               ; preds = %_ZN7scanner9read_charEv.exit
  %76 = tail call noundef i32 @_ZN7scanner15read_bv_literalEv(ptr noundef nonnull align 8 dereferenceable(388) %0)
  br label %.thread

77:                                               ; preds = %_ZN7scanner9read_charEv.exit
  store i32 10, ptr %2, align 4, !tbaa !3
  br label %85

78:                                               ; preds = %_ZN7scanner9read_charEv.exit
  %79 = load ptr, ptr %14, align 8, !tbaa !41
  %80 = tail call noundef nonnull align 8 dereferenceable(8) ptr @_ZSt16__ostream_insertIcSt11char_traitsIcEERSt13basic_ostreamIT_T0_ES6_PKS3_l(ptr noundef nonnull align 8 dereferenceable(8) %79, ptr noundef nonnull @.str.1, i64 noundef 30)
  %81 = tail call noundef nonnull align 8 dereferenceable(8) ptr @_ZNSolsEi(ptr noundef nonnull align 8 dereferenceable(8) %79, i32 noundef %.0.i)
  %82 = tail call noundef nonnull align 8 dereferenceable(8) ptr @_ZSt16__ostream_insertIcSt11char_traitsIcEERSt13basic_ostreamIT_T0_ES6_PKS3_l(ptr noundef nonnull align 8 dereferenceable(8) %81, ptr noundef nonnull @.str.2, i64 noundef 1)
  %83 = tail call noundef nonnull align 8 dereferenceable(8) ptr @_ZNSolsEi(ptr noundef nonnull align 8 dereferenceable(8) %81, i32 noundef %.0.i)
  %84 = tail call noundef nonnull align 8 dereferenceable(8) ptr @_ZSt16__ostream_insertIcSt11char_traitsIcEERSt13basic_ostreamIT_T0_ES6_PKS3_l(ptr noundef nonnull align 8 dereferenceable(8) %83, ptr noundef nonnull @.str.3, i64 noundef 3)
  store i32 11, ptr %2, align 4, !tbaa !3
  br label %85

85:                                               ; preds = %_ZN7scanner9read_charEv.exit, %61, %64, %77, %78
  %86 = load i32, ptr %2, align 4, !tbaa !3
  %87 = add i32 %86, -12
  %spec.select.i = icmp ult i32 %87, -2
  br i1 %spec.select.i, label %15, label %.thread

.thread.loopexit:                                 ; preds = %_ZN7scanner9read_charEv.exit
  br label %.thread

.thread.loopexit43:                               ; preds = %_ZN7scanner9read_charEv.exit
  br label %.thread

.thread:                                          ; preds = %85, %_ZN7scanner9read_charEv.exit, %.thread.loopexit43, %.thread.loopexit, %1, %65, %68, %70, %72, %75
  %.2 = phi i32 [ %67, %65 ], [ %69, %68 ], [ %71, %70 ], [ %74, %72 ], [ %76, %75 ], [ %3, %1 ], [ 3, %.thread.loopexit ], [ 2, %_ZN7scanner9read_charEv.exit ], [ %86, %85 ], [ 1, %.thread.loopexit43 ]
  ret i32 %.2
}